(lp0
(lp1
I3
aI6
aI0
aI4
aI8
aI7
aI1
aI2
aI5
aa(lp2
S'Kristiansand'
p3
aS'Stavanger'
p4
aS'Bergen'
p5
aS'Lillehammer'
p6
aS'Trondheim'
p7
aS'Troms\xf8'
p8
aS'Hammerfest'
p9
aS'Kirkenes'
p10
aS'Oslo'
p11
aaI5444
a.