(lp0
(lp1
I4
aI5
aI3
aI6
aI0
aI8
aI7
aI1
aI2
aa(lp2
S'Lillehammer'
p3
aS'Oslo'
p4
aS'Kristiansand'
p5
aS'Stavanger'
p6
aS'Bergen'
p7
aS'Trondheim'
p8
aS'Troms\xf8'
p9
aS'Hammerfest'
p10
aS'Kirkenes'
p11
aaI5455
a.